; Function Attrs: mustprogress uwtable
define dso_local noundef zeroext i1 @_ZN27cmCMakePresetsGraphInternal21PresetVectorIntHelperERSt6vectorIiSaIiEEPKN4Json5ValueEP11cmJSONState(ptr noundef nonnull align 8 dereferenceable(24) %0, ptr noundef %1, ptr noundef %2) local_unnamed_addr #3 personality ptr @__gxx_personality_v0 {
  %4 = alloca ptr, align 8
  %5 = alloca ptr, align 8
  %6 = alloca %"class.std::function.0", align 8
  %7 = load atomic i8, ptr @_ZGVZN27cmCMakePresetsGraphInternal21PresetVectorIntHelperERSt6vectorIiSaIiEEPKN4Json5ValueEP11cmJSONStateE6helper acquire, align 8
  %8 = icmp eq i8 %7, 0
  br i1 %8, label %9, label %22, !prof !23

9:                                                ; preds = %3
  %10 = tail call i32 @__cxa_guard_acquire(ptr nonnull @_ZGVZN27cmCMakePresetsGraphInternal21PresetVectorIntHelperERSt6vectorIiSaIiEEPKN4Json5ValueEP11cmJSONStateE6helper) #23
  %.not = icmp eq i32 %10, 0
  br i1 %.not, label %22, label %11

11:                                               ; preds = %9
  %12 = getelementptr inbounds i8, ptr %6, i64 16
  %13 = getelementptr inbounds i8, ptr %6, i64 24
  %14 = getelementptr inbounds i8, ptr %6, i64 8
  store i64 0, ptr %14, align 8
  store ptr @_ZN20cmCMakePresetsErrors14INVALID_PRESETEPKN4Json5ValueEP11cmJSONState, ptr %6, align 8
  store ptr @_ZNSt17_Function_handlerIFvPKN4Json5ValueEP11cmJSONStateEPS6_E9_M_invokeERKSt9_Any_dataOS3_OS5_, ptr %13, align 8
  store ptr @_ZNSt17_Function_handlerIFvPKN4Json5ValueEP11cmJSONStateEPS6_E10_M_managerERSt9_Any_dataRKS9_St18_Manager_operation, ptr %12, align 8
  invoke void @_ZN19cmJSONHelperBuilder12VectorFilterIiPFbRiPKN4Json5ValueEP11cmJSONStateEZNS_6VectorIiS9_EESt8functionIFbRSt6vectorIT_SaISD_EES5_S7_EESB_IFvS5_S7_EET0_EUlRKiE_EESI_RKSK_SL_T1_(ptr dead_on_unwind nonnull writable sret(%"class.std::function.93") align 8 @_ZZN27cmCMakePresetsGraphInternal21PresetVectorIntHelperERSt6vectorIiSaIiEEPKN4Json5ValueEP11cmJSONStateE6helper, ptr noundef nonnull align 8 dereferenceable(32) %6, ptr noundef nonnull @_ZN27cmCMakePresetsGraphInternal15PresetIntHelperERiPKN4Json5ValueEP11cmJSONState)
          to label %_ZN19cmJSONHelperBuilder6VectorIiPFbRiPKN4Json5ValueEP11cmJSONStateEEESt8functionIFbRSt6vectorIT_SaISC_EES5_S7_EESA_IFvS5_S7_EET0_.exit unwind label %27

_ZN19cmJSONHelperBuilder6VectorIiPFbRiPKN4Json5ValueEP11cmJSONStateEEESt8functionIFbRSt6vectorIT_SaISC_EES5_S7_EESA_IFvS5_S7_EET0_.exit: ; preds = %11
  %15 = load ptr, ptr %12, align 8
  %.not.i.i = icmp eq ptr %15, null
  br i1 %.not.i.i, label %_ZNSt8functionIFvPKN4Json5ValueEP11cmJSONStateEED2Ev.exit, label %16

16:                                               ; preds = %_ZN19cmJSONHelperBuilder6VectorIiPFbRiPKN4Json5ValueEP11cmJSONStateEEESt8functionIFbRSt6vectorIT_SaISC_EES5_S7_EESA_IFvS5_S7_EET0_.exit
  %17 = invoke noundef zeroext i1 %15(ptr noundef nonnull align 8 dereferenceable(16) %6, ptr noundef nonnull align 8 dereferenceable(16) %6, i32 noundef 3)
          to label %_ZNSt8functionIFvPKN4Json5ValueEP11cmJSONStateEED2Ev.exit unwind label %18

18:                                               ; preds = %16
  %19 = landingpad { ptr, i32 }
          catch ptr null
  %20 = extractvalue { ptr, i32 } %19, 0
  call void @__clang_call_terminate(ptr %20) #22
  unreachable

_ZNSt8functionIFvPKN4Json5ValueEP11cmJSONStateEED2Ev.exit: ; preds = %_ZN19cmJSONHelperBuilder6VectorIiPFbRiPKN4Json5ValueEP11cmJSONStateEEESt8functionIFbRSt6vectorIT_SaISC_EES5_S7_EESA_IFvS5_S7_EET0_.exit, %16
  %21 = call i32 @__cxa_atexit(ptr nonnull @_ZNSt8functionIFbRSt6vectorIiSaIiEEPKN4Json5ValueEP11cmJSONStateEED2Ev, ptr nonnull @_ZZN27cmCMakePresetsGraphInternal21PresetVectorIntHelperERSt6vectorIiSaIiEEPKN4Json5ValueEP11cmJSONStateE6helper, ptr nonnull @__dso_handle) #23
  call void @__cxa_guard_release(ptr nonnull @_ZGVZN27cmCMakePresetsGraphInternal21PresetVectorIntHelperERSt6vectorIiSaIiEEPKN4Json5ValueEP11cmJSONStateE6helper) #23
  br label %22

22:                                               ; preds = %_ZNSt8functionIFvPKN4Json5ValueEP11cmJSONStateEED2Ev.exit, %9, %3
  call void @llvm.lifetime.start.p0(i64 8, ptr nonnull %4)
  call void @llvm.lifetime.start.p0(i64 8, ptr nonnull %5)
  store ptr %1, ptr %4, align 8
  store ptr %2, ptr %5, align 8
  %23 = load ptr, ptr getelementptr inbounds (%"class.std::function.93", ptr @_ZZN27cmCMakePresetsGraphInternal21PresetVectorIntHelperERSt6vectorIiSaIiEEPKN4Json5ValueEP11cmJSONStateE6helper, i64 0, i32 0, i32 1), align 8
  %.not.i.i4 = icmp eq ptr %23, null
  br i1 %.not.i.i4, label %24, label %_ZNKSt8functionIFbRSt6vectorIiSaIiEEPKN4Json5ValueEP11cmJSONStateEEclES3_S7_S9_.exit

24:                                               ; preds = %22
  call void @_ZSt25__throw_bad_function_callv() #24
  unreachable

_ZNKSt8functionIFbRSt6vectorIiSaIiEEPKN4Json5ValueEP11cmJSONStateEEclES3_S7_S9_.exit: ; preds = %22
  %25 = load ptr, ptr getelementptr inbounds (%"class.std::function.93", ptr @_ZZN27cmCMakePresetsGraphInternal21PresetVectorIntHelperERSt6vectorIiSaIiEEPKN4Json5ValueEP11cmJSONStateE6helper, i64 0, i32 1), align 8
  %26 = call noundef zeroext i1 %25(ptr noundef nonnull align 8 dereferenceable(16) @_ZZN27cmCMakePresetsGraphInternal21PresetVectorIntHelperERSt6vectorIiSaIiEEPKN4Json5ValueEP11cmJSONStateE6helper, ptr noundef nonnull align 8 dereferenceable(24) %0, ptr noundef nonnull align 8 dereferenceable(8) %4, ptr noundef nonnull align 8 dereferenceable(8) %5)
  call void @llvm.lifetime.end.p0(i64 8, ptr nonnull %4)
  call void @llvm.lifetime.end.p0(i64 8, ptr nonnull %5)
  ret i1 %26

27:                                               ; preds = %11
  %28 = landingpad { ptr, i32 }
          cleanup
  %29 = load ptr, ptr %12, align 8
  %.not.i.i5 = icmp eq ptr %29, null
  br i1 %.not.i.i5, label %_ZNSt8functionIFvPKN4Json5ValueEP11cmJSONStateEED2Ev.exit6, label %30

30:                                               ; preds = %27
  %31 = invoke noundef zeroext i1 %29(ptr noundef nonnull align 8 dereferenceable(16) %6, ptr noundef nonnull align 8 dereferenceable(16) %6, i32 noundef 3)
          to label %_ZNSt8functionIFvPKN4Json5ValueEP11cmJSONStateEED2Ev.exit6 unwind label %32

32:                                               ; preds = %30
  %33 = landingpad { ptr, i32 }
          catch ptr null
  %34 = extractvalue { ptr, i32 } %33, 0
  call void @__clang_call_terminate(ptr %34) #22
  unreachable

_ZNSt8functionIFvPKN4Json5ValueEP11cmJSONStateEED2Ev.exit6: ; preds = %27, %30
  call void @__cxa_guard_abort(ptr nonnull @_ZGVZN27cmCMakePresetsGraphInternal21PresetVectorIntHelperERSt6vectorIiSaIiEEPKN4Json5ValueEP11cmJSONStateE6helper) #23
  resume { ptr, i32 } %28
}